target datalayout = "e-m:e-p270:32:32-p271:32:32-p272:64:64-i64:64-i128:128-f80:128-n8:16:32:64-S128"
target triple = "x86_64-pc-linux-gnu"

; Function Attrs: nounwind uwtable
define hidden void @opj_calculate_norms(ptr noundef %0, i32 noundef %1, ptr noundef %2) #0 {
  %4 = alloca ptr, align 8
  %5 = alloca i32, align 4
  %6 = alloca ptr, align 8
  %7 = alloca i32, align 4
  %8 = alloca i32, align 4
  %9 = alloca i32, align 4
  %10 = alloca float, align 4
  %11 = alloca ptr, align 8
  %12 = alloca ptr, align 8
  store ptr %0, ptr %4, align 8, !tbaa !47
  store i32 %1, ptr %5, align 4, !tbaa !13
  store ptr %2, ptr %6, align 8, !tbaa !21
  call void @llvm.lifetime.start.p0(i64 4, ptr %7) #9
  call void @llvm.lifetime.start.p0(i64 4, ptr %8) #9
  call void @llvm.lifetime.start.p0(i64 4, ptr %9) #9
  call void @llvm.lifetime.start.p0(i64 4, ptr %10) #9
  call void @llvm.lifetime.start.p0(i64 8, ptr %11) #9
  %13 = load ptr, ptr %4, align 8, !tbaa !47
  store ptr %13, ptr %11, align 8, !tbaa !47
  call void @llvm.lifetime.start.p0(i64 8, ptr %12) #9
  %14 = load ptr, ptr %6, align 8, !tbaa !21
  store ptr %14, ptr %12, align 8, !tbaa !21
  store i32 0, ptr %7, align 4, !tbaa !13
  br label %15

15:                                               ; preds = %62, %3
  %16 = load i32, ptr %7, align 4, !tbaa !13
  %17 = load i32, ptr %5, align 4, !tbaa !13
  %18 = icmp ult i32 %16, %17
  br i1 %18, label %19, label %65

19:                                               ; preds = %15
  %20 = load ptr, ptr %11, align 8, !tbaa !47
  %21 = load i32, ptr %7, align 4, !tbaa !13
  %22 = zext i32 %21 to i64
  %23 = getelementptr inbounds nuw double, ptr %20, i64 %22
  store double 0.000000e+00, ptr %23, align 8, !tbaa !19
  %24 = load i32, ptr %7, align 4, !tbaa !13
  store i32 %24, ptr %9, align 4, !tbaa !13
  store i32 0, ptr %8, align 4, !tbaa !13
  br label %25

25:                                               ; preds = %48, %19
  %26 = load i32, ptr %8, align 4, !tbaa !13
  %27 = load i32, ptr %5, align 4, !tbaa !13
  %28 = icmp ult i32 %26, %27
  br i1 %28, label %29, label %51

29:                                               ; preds = %25
  %30 = load ptr, ptr %12, align 8, !tbaa !21
  %31 = load i32, ptr %9, align 4, !tbaa !13
  %32 = zext i32 %31 to i64
  %33 = getelementptr inbounds nuw float, ptr %30, i64 %32
  %34 = load float, ptr %33, align 4, !tbaa !24
  store float %34, ptr %10, align 4, !tbaa !24
  %35 = load i32, ptr %5, align 4, !tbaa !13
  %36 = load i32, ptr %9, align 4, !tbaa !13
  %37 = add i32 %36, %35
  store i32 %37, ptr %9, align 4, !tbaa !13
  %38 = load float, ptr %10, align 4, !tbaa !24
  %39 = fpext float %38 to double
  %40 = load float, ptr %10, align 4, !tbaa !24
  %41 = fpext float %40 to double
  %42 = load ptr, ptr %11, align 8, !tbaa !47
  %43 = load i32, ptr %7, align 4, !tbaa !13
  %44 = zext i32 %43 to i64
  %45 = getelementptr inbounds nuw double, ptr %42, i64 %44
  %46 = load double, ptr %45, align 8, !tbaa !19
  %47 = call double @llvm.fmuladd.f64(double %39, double %41, double %46)
  store double %47, ptr %45, align 8, !tbaa !19
  br label %48

48:                                               ; preds = %29
  %49 = load i32, ptr %8, align 4, !tbaa !13
  %50 = add i32 %49, 1
  store i32 %50, ptr %8, align 4, !tbaa !13
  br label %25, !llvm.loop !49

51:                                               ; preds = %25
  %52 = load ptr, ptr %11, align 8, !tbaa !47
  %53 = load i32, ptr %7, align 4, !tbaa !13
  %54 = zext i32 %53 to i64
  %55 = getelementptr inbounds nuw double, ptr %52, i64 %54
  %56 = load double, ptr %55, align 8, !tbaa !19
  %57 = call double @sqrt(double noundef %56) #9, !tbaa !13
  %58 = load ptr, ptr %11, align 8, !tbaa !47
  %59 = load i32, ptr %7, align 4, !tbaa !13
  %60 = zext i32 %59 to i64
  %61 = getelementptr inbounds nuw double, ptr %58, i64 %60
  store double %57, ptr %61, align 8, !tbaa !19
  br label %62

62:                                               ; preds = %51
  %63 = load i32, ptr %7, align 4, !tbaa !13
  %64 = add i32 %63, 1
  store i32 %64, ptr %7, align 4, !tbaa !13
  br label %15, !llvm.loop !50

65:                                               ; preds = %15
  call void @llvm.lifetime.end.p0(i64 8, ptr %12) #9
  call void @llvm.lifetime.end.p0(i64 8, ptr %11) #9
  call void @llvm.lifetime.end.p0(i64 4, ptr %10) #9
  call void @llvm.lifetime.end.p0(i64 4, ptr %9) #9
  call void @llvm.lifetime.end.p0(i64 4, ptr %8) #9
  call void @llvm.lifetime.end.p0(i64 4, ptr %7) #9
  ret void
}