; Function Attrs: nofree nounwind memory(write, argmem: readwrite) uwtable
define hidden void @opj_calculate_norms(ptr noundef writeonly captures(none) %0, i32 noundef %1, ptr noundef readonly captures(none) %2) local_unnamed_addr #5 {
  %.not = icmp eq i32 %1, 0
  br i1 %.not, label %._crit_edge, label %.lr.ph.preheader

.lr.ph.preheader:                                 ; preds = %3
  %wide.trip.count = zext i32 %1 to i64
  br label %.lr.ph

.lr.ph:                                           ; preds = %.lr.ph.preheader, %15
  %indvars.iv = phi i64 [ 0, %.lr.ph.preheader ], [ %indvars.iv.next, %15 ]
  %4 = getelementptr inbounds nuw double, ptr %0, i64 %indvars.iv
  %5 = trunc nuw i64 %indvars.iv to i32
  br label %6

6:                                                ; preds = %.lr.ph, %6
  %.02226 = phi i32 [ 0, %.lr.ph ], [ %14, %6 ]
  %.02325 = phi i32 [ %5, %.lr.ph ], [ %11, %6 ]
  %7 = phi double [ 0.000000e+00, %.lr.ph ], [ %13, %6 ]
  %8 = zext i32 %.02325 to i64
  %9 = getelementptr inbounds nuw float, ptr %2, i64 %8
  %10 = load float, ptr %9, align 4, !tbaa !16
  %11 = add i32 %.02325, %1
  %12 = fpext float %10 to double
  %13 = tail call double @llvm.fmuladd.f64(double %12, double %12, double %7)
  %14 = add nuw i32 %.02226, 1
  %exitcond.not = icmp eq i32 %14, %1
  br i1 %exitcond.not, label %15, label %6, !llvm.loop !35

15:                                               ; preds = %6
  %16 = tail call double @sqrt(double noundef %13) #7, !tbaa !8
  store double %16, ptr %4, align 8, !tbaa !13
  %indvars.iv.next = add nuw nsw i64 %indvars.iv, 1
  %exitcond29.not = icmp eq i64 %indvars.iv.next, %wide.trip.count
  br i1 %exitcond29.not, label %._crit_edge, label %.lr.ph, !llvm.loop !36

._crit_edge:                                      ; preds = %15, %3
  ret void
}